target datalayout = "e-m:e-p270:32:32-p271:32:32-p272:64:64-i64:64-i128:128-f80:128-n8:16:32:64-S128"
target triple = "x86_64-pc-linux-gnu"

%"class.boost::filesystem::path" = type { %"class.std::__cxx11::basic_string" }
%"class.std::__cxx11::basic_string" = type { %"struct.std::__cxx11::basic_string<char>::_Alloc_hider", i64, %union.anon }
%"struct.std::__cxx11::basic_string<char>::_Alloc_hider" = type { ptr }
%union.anon = type { i64, [8 x i8] }
%"class.boost::filesystem::file_status" = type { i32, i32 }
%"class.boost::system::error_code" = type { %union.anon.1, i64 }
%union.anon.1 = type { %"struct.boost::system::error_code::data" }
%"struct.boost::system::error_code::data" = type { i32, ptr }

@_ZTIN5boost10filesystem16filesystem_errorE = external constant ptr
@.str.38 = private unnamed_addr constant [26 x i8] c"boost::filesystem::remove\00", align 1

; Function Attrs: noinline noreturn nounwind uwtable
define linkonce_odr hidden void @__clang_call_terminate(ptr noundef %0) #3 comdat {
  %2 = call ptr @__cxa_begin_catch(ptr %0) #14
  call void @_ZSt9terminatev() #20
  unreachable
}

; Function Attrs: mustprogress nounwind uwtable
define available_externally noundef ptr @_ZNKSt7__cxx1112basic_stringIcSt11char_traitsIcESaIcEE7_M_dataEv(ptr noundef nonnull align 8 dereferenceable(32) %0) #2 align 2 {
  %2 = alloca ptr, align 8
  store ptr %0, ptr %2, align 8, !tbaa !3
  %3 = load ptr, ptr %2, align 8
  %4 = getelementptr inbounds nuw %"class.std::__cxx11::basic_string", ptr %3, i32 0, i32 0
  %5 = getelementptr inbounds nuw %"struct.std::__cxx11::basic_string<char>::_Alloc_hider", ptr %4, i32 0, i32 0
  %6 = load ptr, ptr %5, align 8, !tbaa !90
  ret ptr %6
}

; Function Attrs: mustprogress nounwind uwtable
define available_externally noundef ptr @_ZNKSt7__cxx1112basic_stringIcSt11char_traitsIcESaIcEE5c_strEv(ptr noundef nonnull align 8 dereferenceable(32) %0) #2 align 2 personality ptr @__gxx_personality_v0 {
  %2 = alloca ptr, align 8
  store ptr %0, ptr %2, align 8, !tbaa !3
  %3 = load ptr, ptr %2, align 8
  %4 = invoke noundef ptr @_ZNKSt7__cxx1112basic_stringIcSt11char_traitsIcESaIcEE7_M_dataEv(ptr noundef nonnull align 8 dereferenceable(32) %3)
          to label %5 unwind label %6

5:                                                ; preds = %1
  ret ptr %4

6:                                                ; preds = %1
  %7 = landingpad { ptr, i32 }
          catch ptr null
  %8 = extractvalue { ptr, i32 } %7, 0
  call void @__clang_call_terminate(ptr %8) #20
  unreachable
}

; Function Attrs: inlinehint mustprogress nounwind uwtable
define internal noundef zeroext i1 @_ZN5boost10filesystem6detail12_GLOBAL__N_115not_found_errorEi(i32 noundef %0) #1 {
  %2 = alloca i32, align 4
  store i32 %0, ptr %2, align 4, !tbaa !7
  %3 = load i32, ptr %2, align 4, !tbaa !7
  %4 = icmp eq i32 %3, 2
  br i1 %4, label %8, label %5

5:                                                ; preds = %1
  %6 = load i32, ptr %2, align 4, !tbaa !7
  %7 = icmp eq i32 %6, 20
  br label %8

8:                                                ; preds = %5, %1
  %9 = phi i1 [ true, %1 ], [ %7, %5 ]
  ret i1 %9
}

; Function Attrs: mustprogress nounwind uwtable
define linkonce_odr hidden noundef ptr @_ZNK5boost10filesystem4path5c_strEv(ptr noundef nonnull align 8 dereferenceable(32) %0) #2 comdat align 2 {
  %2 = alloca ptr, align 8
  store ptr %0, ptr %2, align 8, !tbaa !3
  %3 = load ptr, ptr %2, align 8
  %4 = getelementptr inbounds nuw %"class.boost::filesystem::path", ptr %3, i32 0, i32 0
  %5 = call noundef ptr @_ZNKSt7__cxx1112basic_stringIcSt11char_traitsIcESaIcEE5c_strEv(ptr noundef nonnull align 8 dereferenceable(32) %4) #14
  ret ptr %5
}

; Function Attrs: inlinehint mustprogress uwtable
define internal noundef zeroext i1 @_ZN5boost10filesystem6detail12_GLOBAL__N_111remove_implERKNS0_4pathENS0_9file_typeEPNS_6system10error_codeEi(ptr noundef nonnull align 8 dereferenceable(32) %0, i32 noundef %1, ptr noundef %2, i32 noundef %3) #0 {
  %5 = alloca i1, align 1
  %6 = alloca ptr, align 8
  %7 = alloca i32, align 4
  %8 = alloca ptr, align 8
  %9 = alloca i32, align 4
  %10 = alloca i32, align 4
  %11 = alloca i32, align 4
  %12 = alloca i32, align 4
  store ptr %0, ptr %6, align 8, !tbaa !3
  store i32 %1, ptr %7, align 4, !tbaa !25
  store ptr %2, ptr %8, align 8, !tbaa !3
  store i32 %3, ptr %9, align 4, !tbaa !7
  %13 = load i32, ptr %7, align 4, !tbaa !25
  %14 = icmp eq i32 %13, 1
  br i1 %14, label %15, label %16

15:                                               ; preds = %4
  store i1 false, ptr %5, align 1
  br label %42

16:                                               ; preds = %4
  call void @llvm.lifetime.start.p0(i64 4, ptr %10) #14
  %17 = load i32, ptr %9, align 4, !tbaa !7
  %18 = load ptr, ptr %6, align 8, !tbaa !3
  %19 = call noundef ptr @_ZNK5boost10filesystem4path5c_strEv(ptr noundef nonnull align 8 dereferenceable(32) %18) #14
  %20 = load i32, ptr %7, align 4, !tbaa !25
  %21 = icmp eq i32 %20, 3
  %22 = select i1 %21, i32 512, i32 0
  %23 = call i32 @unlinkat(i32 noundef %17, ptr noundef %19, i32 noundef %22) #14
  store i32 %23, ptr %10, align 4, !tbaa !7
  %24 = load i32, ptr %10, align 4, !tbaa !7
  %25 = icmp ne i32 %24, 0
  br i1 %25, label %26, label %40

26:                                               ; preds = %16
  call void @llvm.lifetime.start.p0(i64 4, ptr %11) #14
  %27 = call ptr @__errno_location() #22
  %28 = load i32, ptr %27, align 4, !tbaa !7
  store i32 %28, ptr %11, align 4, !tbaa !7
  %29 = load i32, ptr %11, align 4, !tbaa !7
  %30 = call noundef zeroext i1 @_ZN5boost10filesystem6detail12_GLOBAL__N_115not_found_errorEi(i32 noundef %29) #14
  %31 = xor i1 %30, true
  %32 = zext i1 %31 to i64
  %33 = call i64 @llvm.expect.i64(i64 %32, i64 0)
  %34 = icmp ne i64 %33, 0
  br i1 %34, label %35, label %39

35:                                               ; preds = %26
  %36 = load i32, ptr %11, align 4, !tbaa !7
  %37 = load ptr, ptr %6, align 8, !tbaa !3
  %38 = load ptr, ptr %8, align 8, !tbaa !3
  call void @_ZN5boost10filesystem10emit_errorEiRKNS0_4pathEPNS_6system10error_codeEPKc(i32 noundef %36, ptr noundef nonnull align 8 dereferenceable(32) %37, ptr noundef %38, ptr noundef @.str.38)
  br label %39

39:                                               ; preds = %35, %26
  store i1 false, ptr %5, align 1
  store i32 1, ptr %12, align 4
  call void @llvm.lifetime.end.p0(i64 4, ptr %11) #14
  br label %41

40:                                               ; preds = %16
  store i1 true, ptr %5, align 1
  store i32 1, ptr %12, align 4
  br label %41

41:                                               ; preds = %40, %39
  call void @llvm.lifetime.end.p0(i64 4, ptr %10) #14
  br label %42

42:                                               ; preds = %41, %15
  %43 = load i1, ptr %5, align 1
  ret i1 %43
}

; Function Attrs: mustprogress nounwind uwtable
define linkonce_odr hidden noundef i32 @_ZNK5boost10filesystem11file_status4typeEv(ptr noundef nonnull align 4 dereferenceable(8) %0) #2 comdat align 2 {
  %2 = alloca ptr, align 8
  store ptr %0, ptr %2, align 8, !tbaa !3
  %3 = load ptr, ptr %2, align 8
  %4 = getelementptr inbounds nuw %"class.boost::filesystem::file_status", ptr %3, i32 0, i32 0
  %5 = load i32, ptr %4, align 4, !tbaa !29
  ret i32 %5
}

; Function Attrs: mustprogress nounwind uwtable
define linkonce_odr hidden void @_ZN5boost6system10error_codeC2Ev(ptr noundef nonnull align 8 dereferenceable(24) %0) unnamed_addr #2 comdat align 2 {
  %2 = alloca ptr, align 8
  store ptr %0, ptr %2, align 8, !tbaa !3
  %3 = load ptr, ptr %2, align 8
  %4 = getelementptr inbounds nuw %"class.boost::system::error_code", ptr %3, i32 0, i32 0
  call void @llvm.memset.p0.i64(ptr align 8 %4, i8 0, i64 16, i1 false)
  %5 = getelementptr inbounds nuw %"class.boost::system::error_code", ptr %3, i32 0, i32 1
  store i64 0, ptr %5, align 8, !tbaa !32
  ret void
}

; Function Attrs: inlinehint mustprogress uwtable
define internal noundef zeroext i1 @_ZN5boost10filesystem6detail12_GLOBAL__N_111remove_implERKNS0_4pathEPNS_6system10error_codeE(ptr noundef nonnull align 8 dereferenceable(32) %0, ptr noundef %1) #0 personality ptr @__gxx_personality_v0 {
  %3 = alloca i1, align 1
  %4 = alloca ptr, align 8
  %5 = alloca ptr, align 8
  %6 = alloca %"class.boost::system::error_code", align 8
  %7 = alloca i32, align 4
  %8 = alloca %"class.boost::filesystem::file_status", align 4
  %9 = alloca %"class.boost::system::error_code", align 8
  %10 = alloca ptr, align 8
  %11 = alloca i32, align 4
  %12 = alloca i32, align 4
  store ptr %0, ptr %4, align 8, !tbaa !3
  store ptr %1, ptr %5, align 8, !tbaa !3
  call void @llvm.lifetime.start.p0(i64 24, ptr %6) #14
  call void @_ZN5boost6system10error_codeC2Ev(ptr noundef nonnull align 8 dereferenceable(24) %6) #14
  call void @llvm.lifetime.start.p0(i64 4, ptr %7) #14
  call void @llvm.lifetime.start.p0(i64 8, ptr %8) #14
  %13 = load ptr, ptr %4, align 8, !tbaa !3
  call void @_ZN5boost10filesystem6detail19symlink_status_implERKNS0_4pathEPNS_6system10error_codeEi(ptr dead_on_unwind writable sret(%"class.boost::filesystem::file_status") align 4 %8, ptr noundef nonnull align 8 dereferenceable(32) %13, ptr noundef %6, i32 noundef -100)
  %14 = call noundef i32 @_ZNK5boost10filesystem11file_status4typeEv(ptr noundef nonnull align 4 dereferenceable(8) %8) #14
  call void @llvm.lifetime.end.p0(i64 8, ptr %8) #14
  store i32 %14, ptr %7, align 4, !tbaa !25
  %15 = load i32, ptr %7, align 4, !tbaa !25
  %16 = icmp eq i32 %15, 0
  %17 = zext i1 %16 to i64
  %18 = call i64 @llvm.expect.i64(i64 %17, i64 0)
  %19 = icmp ne i64 %18, 0
  br i1 %19, label %20, label %33

20:                                               ; preds = %2
  %21 = load ptr, ptr %5, align 8, !tbaa !3
  %22 = icmp ne ptr %21, null
  br i1 %22, label %31, label %23

23:                                               ; preds = %20
  %24 = call ptr @__cxa_allocate_exception(i64 48) #14
  %25 = load ptr, ptr %4, align 8, !tbaa !3
  call void @llvm.memcpy.p0.p0.i64(ptr align 8 %9, ptr align 8 %6, i64 24, i1 false), !tbaa.struct !21
  invoke void @_ZN5boost10filesystem16filesystem_errorC1EPKcRKNS0_4pathENS_6system10error_codeE(ptr noundef nonnull align 8 dereferenceable(48) %24, ptr noundef @.str.38, ptr noundef nonnull align 8 dereferenceable(32) %25, ptr noundef byval(%"class.boost::system::error_code") align 8 %9)
          to label %26 unwind label %27

26:                                               ; preds = %23
  call void @__cxa_throw(ptr %24, ptr @_ZTIN5boost10filesystem16filesystem_errorE, ptr @_ZN5boost10filesystem16filesystem_errorD1Ev) #21
  unreachable

27:                                               ; preds = %23
  %28 = landingpad { ptr, i32 }
          cleanup
  %29 = extractvalue { ptr, i32 } %28, 0
  store ptr %29, ptr %10, align 8
  %30 = extractvalue { ptr, i32 } %28, 1
  store i32 %30, ptr %11, align 4
  call void @__cxa_free_exception(ptr %24) #14
  call void @llvm.lifetime.end.p0(i64 4, ptr %7) #14
  call void @llvm.lifetime.end.p0(i64 24, ptr %6) #14
  br label %40

31:                                               ; preds = %20
  %32 = load ptr, ptr %5, align 8, !tbaa !3
  call void @llvm.memcpy.p0.p0.i64(ptr align 8 %32, ptr align 8 %6, i64 24, i1 false), !tbaa.struct !21
  store i1 false, ptr %3, align 1
  store i32 1, ptr %12, align 4
  br label %38

33:                                               ; preds = %2
  %34 = load ptr, ptr %4, align 8, !tbaa !3
  %35 = load i32, ptr %7, align 4, !tbaa !25
  %36 = load ptr, ptr %5, align 8, !tbaa !3
  %37 = call noundef zeroext i1 @_ZN5boost10filesystem6detail12_GLOBAL__N_111remove_implERKNS0_4pathENS0_9file_typeEPNS_6system10error_codeEi(ptr noundef nonnull align 8 dereferenceable(32) %34, i32 noundef %35, ptr noundef %36, i32 noundef -100)
  store i1 %37, ptr %3, align 1
  store i32 1, ptr %12, align 4
  br label %38

38:                                               ; preds = %33, %31
  call void @llvm.lifetime.end.p0(i64 4, ptr %7) #14
  call void @llvm.lifetime.end.p0(i64 24, ptr %6) #14
  %39 = load i1, ptr %3, align 1
  ret i1 %39

40:                                               ; preds = %27
  %41 = load ptr, ptr %10, align 8
  %42 = load i32, ptr %11, align 4
  %43 = insertvalue { ptr, i32 } poison, ptr %41, 0
  %44 = insertvalue { ptr, i32 } %43, i32 %42, 1
  resume { ptr, i32 } %44
}