; Function Attrs: inlinehint mustprogress uwtable
define internal fastcc noundef zeroext i1 @_ZN5boost10filesystem6detail12_GLOBAL__N_111remove_implERKNS0_4pathEPNS_6system10error_codeE(ptr noundef nonnull align 8 dereferenceable(32) %0, ptr noundef %1) unnamed_addr #0 personality ptr @__gxx_personality_v0 {
  %3 = alloca %"class.boost::system::error_code", align 8
  %4 = alloca %"class.boost::filesystem::file_status", align 4
  call void @llvm.lifetime.start.p0(i64 24, ptr nonnull %3) #27
  call void @llvm.memset.p0.i64(ptr noundef nonnull align 8 dereferenceable(24) %3, i8 0, i64 24, i1 false)
  call void @llvm.lifetime.start.p0(i64 8, ptr nonnull %4) #27
  call void @_ZN5boost10filesystem6detail19symlink_status_implERKNS0_4pathEPNS_6system10error_codeEi(ptr dead_on_unwind nonnull writable sret(%"class.boost::filesystem::file_status") align 4 %4, ptr noundef nonnull align 8 dereferenceable(32) %0, ptr noundef nonnull %3, i32 noundef -100)
  %5 = load i32, ptr %4, align 4, !tbaa !34
  call void @llvm.lifetime.end.p0(i64 8, ptr nonnull %4) #27
  switch i32 %5, label %13 [
    i32 0, label %6
    i32 1, label %_ZN5boost10filesystem6detail12_GLOBAL__N_111remove_implERKNS0_4pathENS0_9file_typeEPNS_6system10error_codeEi.exit
  ], !prof !166

6:                                                ; preds = %2
  %.not = icmp eq ptr %1, null
  br i1 %.not, label %7, label %12

7:                                                ; preds = %6
  %8 = call ptr @__cxa_allocate_exception(i64 48) #27
  invoke void @_ZN5boost10filesystem16filesystem_errorC1EPKcRKNS0_4pathENS_6system10error_codeE(ptr noundef nonnull align 8 dereferenceable(48) %8, ptr noundef nonnull @.str.38, ptr noundef nonnull align 8 dereferenceable(32) %0, ptr noundef nonnull byval(%"class.boost::system::error_code") align 8 %3)
          to label %9 unwind label %10

9:                                                ; preds = %7
  call void @__cxa_throw(ptr nonnull %8, ptr nonnull @_ZTIN5boost10filesystem16filesystem_errorE, ptr nonnull @_ZN5boost10filesystem16filesystem_errorD1Ev) #28
  unreachable

10:                                               ; preds = %7
  %11 = landingpad { ptr, i32 }
          cleanup
  call void @__cxa_free_exception(ptr %8) #27
  call void @llvm.lifetime.end.p0(i64 24, ptr nonnull %3) #27
  resume { ptr, i32 } %11

12:                                               ; preds = %6
  call void @llvm.memcpy.p0.p0.i64(ptr noundef nonnull align 8 dereferenceable(24) %1, ptr noundef nonnull align 8 dereferenceable(24) %3, i64 24, i1 false), !tbaa.struct !91
  br label %_ZN5boost10filesystem6detail12_GLOBAL__N_111remove_implERKNS0_4pathENS0_9file_typeEPNS_6system10error_codeEi.exit

13:                                               ; preds = %2
  %14 = load ptr, ptr %0, align 8, !tbaa !13
  %15 = icmp eq i32 %5, 3
  %16 = select i1 %15, i32 512, i32 0
  %17 = call i32 @unlinkat(i32 noundef -100, ptr noundef %14, i32 noundef %16) #27
  %.not.i = icmp eq i32 %17, 0
  br i1 %.not.i, label %_ZN5boost10filesystem6detail12_GLOBAL__N_111remove_implERKNS0_4pathENS0_9file_typeEPNS_6system10error_codeEi.exit, label %18

18:                                               ; preds = %13
  %19 = tail call ptr @__errno_location() #30
  %20 = load i32, ptr %19, align 4, !tbaa !19
  switch i32 %20, label %21 [
    i32 20, label %_ZN5boost10filesystem6detail12_GLOBAL__N_111remove_implERKNS0_4pathENS0_9file_typeEPNS_6system10error_codeEi.exit
    i32 2, label %_ZN5boost10filesystem6detail12_GLOBAL__N_111remove_implERKNS0_4pathENS0_9file_typeEPNS_6system10error_codeEi.exit
  ]

21:                                               ; preds = %18
  call void @_ZN5boost10filesystem10emit_errorEiRKNS0_4pathEPNS_6system10error_codeEPKc(i32 noundef %20, ptr noundef nonnull align 8 dereferenceable(32) %0, ptr noundef %1, ptr noundef nonnull @.str.38)
  br label %_ZN5boost10filesystem6detail12_GLOBAL__N_111remove_implERKNS0_4pathENS0_9file_typeEPNS_6system10error_codeEi.exit

_ZN5boost10filesystem6detail12_GLOBAL__N_111remove_implERKNS0_4pathENS0_9file_typeEPNS_6system10error_codeEi.exit: ; preds = %2, %21, %18, %18, %13, %12
  %.0 = phi i1 [ false, %12 ], [ true, %13 ], [ false, %18 ], [ false, %21 ], [ false, %18 ], [ false, %2 ]
  call void @llvm.lifetime.end.p0(i64 24, ptr nonnull %3) #27
  ret i1 %.0
}